target datalayout = "e-m:e-p270:32:32-p271:32:32-p272:64:64-i64:64-i128:128-f80:128-n8:16:32:64-S128"
target triple = "x86_64-pc-linux-gnu"

%struct.BiquadsContext = type { ptr, i32, i32, i32, i32, i32, i32, i32, i32, double, double, double, double, ptr, %struct.AVChannelLayout, i32, i32, [3 x double], [3 x double], [3 x float], [3 x float], [3 x double], [3 x double], [3 x ptr], ptr, [2 x ptr], i32, i64, i32, ptr }
%struct.AVChannelLayout = type { i32, i32, %union.anon.1, ptr }
%union.anon.1 = type { i64 }

; Function Attrs: nounwind uwtable
define internal void @biquad_tdii_s16(ptr noundef %0, ptr noundef %1, ptr noundef %2, i32 noundef %3, ptr noundef %4, ptr noundef %5, i32 noundef %6) #1 {
  %8 = alloca ptr, align 8
  %9 = alloca ptr, align 8
  %10 = alloca ptr, align 8
  %11 = alloca i32, align 4
  %12 = alloca ptr, align 8
  %13 = alloca ptr, align 8
  %14 = alloca i32, align 4
  %15 = alloca ptr, align 8
  %16 = alloca ptr, align 8
  %17 = alloca ptr, align 8
  %18 = alloca ptr, align 8
  %19 = alloca ptr, align 8
  %20 = alloca float, align 4
  %21 = alloca float, align 4
  %22 = alloca float, align 4
  %23 = alloca float, align 4
  %24 = alloca float, align 4
  %25 = alloca float, align 4
  %26 = alloca float, align 4
  %27 = alloca float, align 4
  %28 = alloca float, align 4
  %29 = alloca float, align 4
  %30 = alloca float, align 4
  %31 = alloca i32, align 4
  store ptr %0, ptr %8, align 8, !tbaa !22
  store ptr %1, ptr %9, align 8, !tbaa !36
  store ptr %2, ptr %10, align 8, !tbaa !36
  store i32 %3, ptr %11, align 4, !tbaa !31
  store ptr %4, ptr %12, align 8, !tbaa !36
  store ptr %5, ptr %13, align 8, !tbaa !82
  store i32 %6, ptr %14, align 4, !tbaa !31
  call void @llvm.lifetime.start.p0(i64 8, ptr %15) #11
  %32 = load ptr, ptr %9, align 8, !tbaa !36
  store ptr %32, ptr %15, align 8, !tbaa !83
  call void @llvm.lifetime.start.p0(i64 8, ptr %16) #11
  %33 = load ptr, ptr %10, align 8, !tbaa !36
  store ptr %33, ptr %16, align 8, !tbaa !83
  call void @llvm.lifetime.start.p0(i64 8, ptr %17) #11
  %34 = load ptr, ptr %12, align 8, !tbaa !36
  store ptr %34, ptr %17, align 8, !tbaa !85
  call void @llvm.lifetime.start.p0(i64 8, ptr %18) #11
  %35 = load ptr, ptr %8, align 8, !tbaa !22
  %36 = getelementptr inbounds nuw %struct.BiquadsContext, ptr %35, i32 0, i32 19
  %37 = getelementptr inbounds [3 x float], ptr %36, i64 0, i64 0
  store ptr %37, ptr %18, align 8, !tbaa !85
  call void @llvm.lifetime.start.p0(i64 8, ptr %19) #11
  %38 = load ptr, ptr %8, align 8, !tbaa !22
  %39 = getelementptr inbounds nuw %struct.BiquadsContext, ptr %38, i32 0, i32 20
  %40 = getelementptr inbounds [3 x float], ptr %39, i64 0, i64 0
  store ptr %40, ptr %19, align 8, !tbaa !85
  call void @llvm.lifetime.start.p0(i64 4, ptr %20) #11
  %41 = load ptr, ptr %18, align 8, !tbaa !85
  %42 = getelementptr inbounds float, ptr %41, i64 1
  %43 = load float, ptr %42, align 4, !tbaa !80
  %44 = fneg nsz float %43
  store float %44, ptr %20, align 4, !tbaa !80
  call void @llvm.lifetime.start.p0(i64 4, ptr %21) #11
  %45 = load ptr, ptr %18, align 8, !tbaa !85
  %46 = getelementptr inbounds float, ptr %45, i64 2
  %47 = load float, ptr %46, align 4, !tbaa !80
  %48 = fneg nsz float %47
  store float %48, ptr %21, align 4, !tbaa !80
  call void @llvm.lifetime.start.p0(i64 4, ptr %22) #11
  %49 = load ptr, ptr %19, align 8, !tbaa !85
  %50 = getelementptr inbounds float, ptr %49, i64 0
  %51 = load float, ptr %50, align 4, !tbaa !80
  store float %51, ptr %22, align 4, !tbaa !80
  call void @llvm.lifetime.start.p0(i64 4, ptr %23) #11
  %52 = load ptr, ptr %19, align 8, !tbaa !85
  %53 = getelementptr inbounds float, ptr %52, i64 1
  %54 = load float, ptr %53, align 4, !tbaa !80
  store float %54, ptr %23, align 4, !tbaa !80
  call void @llvm.lifetime.start.p0(i64 4, ptr %24) #11
  %55 = load ptr, ptr %19, align 8, !tbaa !85
  %56 = getelementptr inbounds float, ptr %55, i64 2
  %57 = load float, ptr %56, align 4, !tbaa !80
  store float %57, ptr %24, align 4, !tbaa !80
  call void @llvm.lifetime.start.p0(i64 4, ptr %25) #11
  %58 = load ptr, ptr %17, align 8, !tbaa !85
  %59 = getelementptr inbounds float, ptr %58, i64 0
  %60 = load float, ptr %59, align 4, !tbaa !80
  store float %60, ptr %25, align 4, !tbaa !80
  call void @llvm.lifetime.start.p0(i64 4, ptr %26) #11
  %61 = load ptr, ptr %17, align 8, !tbaa !85
  %62 = getelementptr inbounds float, ptr %61, i64 1
  %63 = load float, ptr %62, align 4, !tbaa !80
  store float %63, ptr %26, align 4, !tbaa !80
  call void @llvm.lifetime.start.p0(i64 4, ptr %27) #11
  %64 = load ptr, ptr %8, align 8, !tbaa !22
  %65 = getelementptr inbounds nuw %struct.BiquadsContext, ptr %64, i32 0, i32 12
  %66 = load double, ptr %65, align 8, !tbaa !87
  %67 = fptrunc nsz double %66 to float
  store float %67, ptr %27, align 4, !tbaa !80
  call void @llvm.lifetime.start.p0(i64 4, ptr %28) #11
  %68 = load float, ptr %27, align 4, !tbaa !80
  %69 = fpext nsz float %68 to double
  %70 = fsub nsz double 1.000000e+00, %69
  %71 = fptrunc nsz double %70 to float
  store float %71, ptr %28, align 4, !tbaa !80
  call void @llvm.lifetime.start.p0(i64 4, ptr %29) #11
  call void @llvm.lifetime.start.p0(i64 4, ptr %30) #11
  call void @llvm.lifetime.start.p0(i64 4, ptr %31) #11
  store i32 0, ptr %31, align 4, !tbaa !31
  br label %72

72:                                               ; preds = %148, %7
  %73 = load i32, ptr %31, align 4, !tbaa !31
  %74 = load i32, ptr %11, align 4, !tbaa !31
  %75 = icmp slt i32 %73, %74
  br i1 %75, label %77, label %76

76:                                               ; preds = %72
  call void @llvm.lifetime.end.p0(i64 4, ptr %31) #11
  br label %151

77:                                               ; preds = %72
  %78 = load ptr, ptr %15, align 8, !tbaa !83
  %79 = load i32, ptr %31, align 4, !tbaa !31
  %80 = sext i32 %79 to i64
  %81 = getelementptr inbounds i16, ptr %78, i64 %80
  %82 = load i16, ptr %81, align 2, !tbaa !88
  %83 = sitofp i16 %82 to float
  store float %83, ptr %29, align 4, !tbaa !80
  %84 = load float, ptr %22, align 4, !tbaa !80
  %85 = load float, ptr %29, align 4, !tbaa !80
  %86 = load float, ptr %25, align 4, !tbaa !80
  %87 = call nsz float @llvm.fmuladd.f32(float %84, float %85, float %86)
  store float %87, ptr %30, align 4, !tbaa !80
  %88 = load float, ptr %23, align 4, !tbaa !80
  %89 = load float, ptr %29, align 4, !tbaa !80
  %90 = load float, ptr %26, align 4, !tbaa !80
  %91 = call nsz float @llvm.fmuladd.f32(float %88, float %89, float %90)
  %92 = load float, ptr %20, align 4, !tbaa !80
  %93 = load float, ptr %30, align 4, !tbaa !80
  %94 = call nsz float @llvm.fmuladd.f32(float %92, float %93, float %91)
  store float %94, ptr %25, align 4, !tbaa !80
  %95 = load float, ptr %24, align 4, !tbaa !80
  %96 = load float, ptr %29, align 4, !tbaa !80
  %97 = load float, ptr %21, align 4, !tbaa !80
  %98 = load float, ptr %30, align 4, !tbaa !80
  %99 = fmul nsz float %97, %98
  %100 = call nsz float @llvm.fmuladd.f32(float %95, float %96, float %99)
  store float %100, ptr %26, align 4, !tbaa !80
  %101 = load float, ptr %30, align 4, !tbaa !80
  %102 = load float, ptr %27, align 4, !tbaa !80
  %103 = load float, ptr %29, align 4, !tbaa !80
  %104 = load float, ptr %28, align 4, !tbaa !80
  %105 = fmul nsz float %103, %104
  %106 = call nsz float @llvm.fmuladd.f32(float %101, float %102, float %105)
  store float %106, ptr %30, align 4, !tbaa !80
  %107 = load i32, ptr %14, align 4, !tbaa !31
  %108 = icmp ne i32 %107, 0
  br i1 %108, label %109, label %116

109:                                              ; preds = %77
  %110 = load float, ptr %29, align 4, !tbaa !80
  %111 = fptosi float %110 to i16
  %112 = load ptr, ptr %16, align 8, !tbaa !83
  %113 = load i32, ptr %31, align 4, !tbaa !31
  %114 = sext i32 %113 to i64
  %115 = getelementptr inbounds i16, ptr %112, i64 %114
  store i16 %111, ptr %115, align 2, !tbaa !88
  br label %147

116:                                              ; preds = %77
  %117 = load float, ptr %30, align 4, !tbaa !80
  %118 = fcmp nsz olt float %117, -3.276800e+04
  br i1 %118, label %119, label %127

119:                                              ; preds = %116
  %120 = load ptr, ptr %13, align 8, !tbaa !82
  %121 = load i32, ptr %120, align 4, !tbaa !31
  %122 = add nsw i32 %121, 1
  store i32 %122, ptr %120, align 4, !tbaa !31
  %123 = load ptr, ptr %16, align 8, !tbaa !83
  %124 = load i32, ptr %31, align 4, !tbaa !31
  %125 = sext i32 %124 to i64
  %126 = getelementptr inbounds i16, ptr %123, i64 %125
  store i16 -32768, ptr %126, align 2, !tbaa !88
  br label %146

127:                                              ; preds = %116
  %128 = load float, ptr %30, align 4, !tbaa !80
  %129 = fcmp nsz ogt float %128, 3.276700e+04
  br i1 %129, label %130, label %138

130:                                              ; preds = %127
  %131 = load ptr, ptr %13, align 8, !tbaa !82
  %132 = load i32, ptr %131, align 4, !tbaa !31
  %133 = add nsw i32 %132, 1
  store i32 %133, ptr %131, align 4, !tbaa !31
  %134 = load ptr, ptr %16, align 8, !tbaa !83
  %135 = load i32, ptr %31, align 4, !tbaa !31
  %136 = sext i32 %135 to i64
  %137 = getelementptr inbounds i16, ptr %134, i64 %136
  store i16 32767, ptr %137, align 2, !tbaa !88
  br label %145

138:                                              ; preds = %127
  %139 = load float, ptr %30, align 4, !tbaa !80
  %140 = fptosi float %139 to i16
  %141 = load ptr, ptr %16, align 8, !tbaa !83
  %142 = load i32, ptr %31, align 4, !tbaa !31
  %143 = sext i32 %142 to i64
  %144 = getelementptr inbounds i16, ptr %141, i64 %143
  store i16 %140, ptr %144, align 2, !tbaa !88
  br label %145

145:                                              ; preds = %138, %130
  br label %146

146:                                              ; preds = %145, %119
  br label %147

147:                                              ; preds = %146, %109
  br label %148

148:                                              ; preds = %147
  %149 = load i32, ptr %31, align 4, !tbaa !31
  %150 = add nsw i32 %149, 1
  store i32 %150, ptr %31, align 4, !tbaa !31
  br label %72, !llvm.loop !103

151:                                              ; preds = %76
  %152 = load float, ptr %25, align 4, !tbaa !80
  %153 = load ptr, ptr %17, align 8, !tbaa !85
  %154 = getelementptr inbounds float, ptr %153, i64 0
  store float %152, ptr %154, align 4, !tbaa !80
  %155 = load float, ptr %26, align 4, !tbaa !80
  %156 = load ptr, ptr %17, align 8, !tbaa !85
  %157 = getelementptr inbounds float, ptr %156, i64 1
  store float %155, ptr %157, align 4, !tbaa !80
  call void @llvm.lifetime.end.p0(i64 4, ptr %30) #11
  call void @llvm.lifetime.end.p0(i64 4, ptr %29) #11
  call void @llvm.lifetime.end.p0(i64 4, ptr %28) #11
  call void @llvm.lifetime.end.p0(i64 4, ptr %27) #11
  call void @llvm.lifetime.end.p0(i64 4, ptr %26) #11
  call void @llvm.lifetime.end.p0(i64 4, ptr %25) #11
  call void @llvm.lifetime.end.p0(i64 4, ptr %24) #11
  call void @llvm.lifetime.end.p0(i64 4, ptr %23) #11
  call void @llvm.lifetime.end.p0(i64 4, ptr %22) #11
  call void @llvm.lifetime.end.p0(i64 4, ptr %21) #11
  call void @llvm.lifetime.end.p0(i64 4, ptr %20) #11
  call void @llvm.lifetime.end.p0(i64 8, ptr %19) #11
  call void @llvm.lifetime.end.p0(i64 8, ptr %18) #11
  call void @llvm.lifetime.end.p0(i64 8, ptr %17) #11
  call void @llvm.lifetime.end.p0(i64 8, ptr %16) #11
  call void @llvm.lifetime.end.p0(i64 8, ptr %15) #11
  ret void
}